target datalayout = "e-m:e-p270:32:32-p271:32:32-p272:64:64-i64:64-i128:128-f80:128-n8:16:32:64-S128"
target triple = "x86_64-pc-linux-gnu"

%struct._object = type { %union.anon, ptr }
%union.anon = type { i64 }
%struct._typeobject = type { %struct.PyVarObject, ptr, i64, i64, ptr, i64, ptr, ptr, ptr, ptr, ptr, ptr, ptr, ptr, ptr, ptr, ptr, ptr, ptr, i64, ptr, ptr, ptr, ptr, i64, ptr, ptr, ptr, ptr, ptr, ptr, ptr, ptr, ptr, i64, ptr, ptr, ptr, ptr, ptr, ptr, ptr, ptr, ptr, ptr, ptr, i32, ptr, ptr, i8, i16 }
%struct.PyVarObject = type { %struct._object, i64 }
%struct.PyDateTime_CAPI = type { ptr, ptr, ptr, ptr, ptr, ptr, ptr, ptr, ptr, ptr, ptr, ptr, ptr, ptr, ptr }
%struct.anon = type { i32, i32 }
%struct.PyTupleObject = type { %struct.PyVarObject, [1 x ptr] }

@PyDateTimeAPI = internal global ptr null, align 8
@.str.32 = private unnamed_addr constant [18 x i8] c"PyTuple_Check(op)\00", align 1
@.str.33 = private unnamed_addr constant [41 x i8] c"../cpython/Include/cpython/tupleobject.h\00", align 1
@__PRETTY_FUNCTION__.PyTuple_SET_ITEM = private unnamed_addr constant [58 x i8] c"void PyTuple_SET_ITEM(PyObject *, Py_ssize_t, PyObject *)\00", align 1
@.str.34 = private unnamed_addr constant [11 x i8] c"0 <= index\00", align 1
@.str.35 = private unnamed_addr constant [23 x i8] c"index < Py_SIZE(tuple)\00", align 1
@PyLong_Type = external global %struct._typeobject, align 8
@.str.36 = private unnamed_addr constant [28 x i8] c"Py_TYPE(ob) != &PyLong_Type\00", align 1
@.str.37 = private unnamed_addr constant [28 x i8] c"../cpython/Include/object.h\00", align 1
@__PRETTY_FUNCTION__.Py_SIZE = private unnamed_addr constant [31 x i8] c"Py_ssize_t Py_SIZE(PyObject *)\00", align 1
@PyBool_Type = external global %struct._typeobject, align 8
@.str.38 = private unnamed_addr constant [28 x i8] c"Py_TYPE(ob) != &PyBool_Type\00", align 1
@.str.39 = private unnamed_addr constant [4 x i8] c"EST\00", align 1

; Function Attrs: inlinehint nounwind uwtable
define internal i64 @Py_SIZE(ptr noundef %0) #3 {
  %2 = alloca ptr, align 8
  store ptr %0, ptr %2, align 8, !tbaa !3
  %3 = load ptr, ptr %2, align 8, !tbaa !3
  %4 = call ptr @_Py_TYPE(ptr noundef %3)
  %5 = icmp ne ptr %4, @PyLong_Type
  br i1 %5, label %6, label %7

6:                                                ; preds = %1
  br label %9

7:                                                ; preds = %1
  call void @__assert_fail(ptr noundef @.str.36, ptr noundef @.str.37, i32 noundef 282, ptr noundef @__PRETTY_FUNCTION__.Py_SIZE) #7
  unreachable

8:                                                ; No predecessors!
  br label %9

9:                                                ; preds = %8, %6
  %10 = load ptr, ptr %2, align 8, !tbaa !3
  %11 = call ptr @_Py_TYPE(ptr noundef %10)
  %12 = icmp ne ptr %11, @PyBool_Type
  br i1 %12, label %13, label %14

13:                                               ; preds = %9
  br label %16

14:                                               ; preds = %9
  call void @__assert_fail(ptr noundef @.str.38, ptr noundef @.str.37, i32 noundef 283, ptr noundef @__PRETTY_FUNCTION__.Py_SIZE) #7
  unreachable

15:                                               ; No predecessors!
  br label %16

16:                                               ; preds = %15, %13
  %17 = load ptr, ptr %2, align 8, !tbaa !3
  %18 = getelementptr inbounds nuw %struct.PyVarObject, ptr %17, i32 0, i32 1
  %19 = load i64, ptr %18, align 8, !tbaa !52
  ret i64 %19
}

; Function Attrs: inlinehint nounwind uwtable
define internal i32 @PyType_HasFeature(ptr noundef %0, i64 noundef %1) #3 {
  %3 = alloca ptr, align 8
  %4 = alloca i64, align 8
  %5 = alloca i64, align 8
  store ptr %0, ptr %3, align 8, !tbaa !41
  store i64 %1, ptr %4, align 8, !tbaa !43
  call void @llvm.lifetime.start.p0(i64 8, ptr %5) #6
  %6 = load ptr, ptr %3, align 8, !tbaa !41
  %7 = getelementptr inbounds nuw %struct._typeobject, ptr %6, i32 0, i32 19
  %8 = load i64, ptr %7, align 8, !tbaa !44
  store i64 %8, ptr %5, align 8, !tbaa !43
  %9 = load i64, ptr %5, align 8, !tbaa !43
  %10 = load i64, ptr %4, align 8, !tbaa !43
  %11 = and i64 %9, %10
  %12 = icmp ne i64 %11, 0
  %13 = zext i1 %12 to i32
  call void @llvm.lifetime.end.p0(i64 8, ptr %5) #6
  ret i32 %13
}

; Function Attrs: inlinehint nounwind uwtable
define internal ptr @_Py_TYPE(ptr noundef %0) #3 {
  %2 = alloca ptr, align 8
  store ptr %0, ptr %2, align 8, !tbaa !3
  %3 = load ptr, ptr %2, align 8, !tbaa !3
  %4 = getelementptr inbounds nuw %struct._object, ptr %3, i32 0, i32 1
  %5 = load ptr, ptr %4, align 8, !tbaa !42
  ret ptr %5
}

; Function Attrs: alwaysinline nounwind uwtable
define internal i32 @_Py_IsImmortal(ptr noundef %0) #4 {
  %2 = alloca ptr, align 8
  store ptr %0, ptr %2, align 8, !tbaa !3
  %3 = load ptr, ptr %2, align 8, !tbaa !3
  %4 = getelementptr inbounds nuw %struct._object, ptr %3, i32 0, i32 0
  %5 = getelementptr inbounds nuw %struct.anon, ptr %4, i32 0, i32 0
  %6 = load i32, ptr %5, align 8, !tbaa !8
  %7 = icmp slt i32 %6, 0
  %8 = zext i1 %7 to i32
  ret i32 %8
}

; Function Attrs: inlinehint nounwind uwtable
define internal void @PyTuple_SET_ITEM(ptr noundef %0, i64 noundef %1, ptr noundef %2) #3 {
  %4 = alloca ptr, align 8
  %5 = alloca i64, align 8
  %6 = alloca ptr, align 8
  %7 = alloca ptr, align 8
  store ptr %0, ptr %4, align 8, !tbaa !3
  store i64 %1, ptr %5, align 8, !tbaa !43
  store ptr %2, ptr %6, align 8, !tbaa !3
  call void @llvm.lifetime.start.p0(i64 8, ptr %7) #6
  %8 = load ptr, ptr %4, align 8, !tbaa !3
  %9 = call ptr @_Py_TYPE(ptr noundef %8)
  %10 = call i32 @PyType_HasFeature(ptr noundef %9, i64 noundef 67108864)
  %11 = icmp ne i32 %10, 0
  br i1 %11, label %12, label %13

12:                                               ; preds = %3
  br label %15

13:                                               ; preds = %3
  call void @__assert_fail(ptr noundef @.str.32, ptr noundef @.str.33, i32 noundef 32, ptr noundef @__PRETTY_FUNCTION__.PyTuple_SET_ITEM) #7
  unreachable

14:                                               ; No predecessors!
  br label %15

15:                                               ; preds = %14, %12
  %16 = load ptr, ptr %4, align 8, !tbaa !3
  store ptr %16, ptr %7, align 8, !tbaa !24
  %17 = load i64, ptr %5, align 8, !tbaa !43
  %18 = icmp sle i64 0, %17
  br i1 %18, label %19, label %20

19:                                               ; preds = %15
  br label %22

20:                                               ; preds = %15
  call void @__assert_fail(ptr noundef @.str.34, ptr noundef @.str.33, i32 noundef 33, ptr noundef @__PRETTY_FUNCTION__.PyTuple_SET_ITEM) #7
  unreachable

21:                                               ; No predecessors!
  br label %22

22:                                               ; preds = %21, %19
  %23 = load i64, ptr %5, align 8, !tbaa !43
  %24 = load ptr, ptr %7, align 8, !tbaa !24
  %25 = call i64 @Py_SIZE(ptr noundef %24)
  %26 = icmp slt i64 %23, %25
  br i1 %26, label %27, label %28

27:                                               ; preds = %22
  br label %30

28:                                               ; preds = %22
  call void @__assert_fail(ptr noundef @.str.35, ptr noundef @.str.33, i32 noundef 34, ptr noundef @__PRETTY_FUNCTION__.PyTuple_SET_ITEM) #7
  unreachable

29:                                               ; No predecessors!
  br label %30

30:                                               ; preds = %29, %27
  %31 = load ptr, ptr %6, align 8, !tbaa !3
  %32 = load ptr, ptr %7, align 8, !tbaa !24
  %33 = getelementptr inbounds nuw %struct.PyTupleObject, ptr %32, i32 0, i32 1
  %34 = load i64, ptr %5, align 8, !tbaa !43
  %35 = getelementptr [1 x ptr], ptr %33, i64 0, i64 %34
  store ptr %31, ptr %35, align 8, !tbaa !3
  call void @llvm.lifetime.end.p0(i64 8, ptr %7) #6
  ret void
}

; Function Attrs: alwaysinline nounwind uwtable
define internal void @Py_DECREF(ptr noundef %0) #4 {
  %2 = alloca ptr, align 8
  store ptr %0, ptr %2, align 8, !tbaa !3
  %3 = load ptr, ptr %2, align 8, !tbaa !3
  %4 = call i32 @_Py_IsImmortal(ptr noundef %3)
  %5 = icmp ne i32 %4, 0
  br i1 %5, label %6, label %7

6:                                                ; preds = %1
  br label %16

7:                                                ; preds = %1
  %8 = load ptr, ptr %2, align 8, !tbaa !3
  %9 = getelementptr inbounds nuw %struct._object, ptr %8, i32 0, i32 0
  %10 = getelementptr inbounds nuw %struct.anon, ptr %9, i32 0, i32 0
  %11 = load i32, ptr %10, align 8, !tbaa !8
  %12 = add i32 %11, -1
  store i32 %12, ptr %10, align 8, !tbaa !8
  %13 = icmp eq i32 %12, 0
  br i1 %13, label %14, label %16

14:                                               ; preds = %7
  %15 = load ptr, ptr %2, align 8, !tbaa !3
  call void @_Py_Dealloc(ptr noundef %15)
  br label %16

16:                                               ; preds = %6, %14, %7
  ret void
}

; Function Attrs: inlinehint nounwind uwtable
define internal void @Py_XDECREF(ptr noundef %0) #3 {
  %2 = alloca ptr, align 8
  store ptr %0, ptr %2, align 8, !tbaa !3
  %3 = load ptr, ptr %2, align 8, !tbaa !3
  %4 = icmp ne ptr %3, null
  br i1 %4, label %5, label %7

5:                                                ; preds = %1
  %6 = load ptr, ptr %2, align 8, !tbaa !3
  call void @Py_DECREF(ptr noundef %6)
  br label %7

7:                                                ; preds = %5, %1
  ret void
}

; Function Attrs: nounwind uwtable
define internal ptr @make_timezones_capi(ptr noundef %0, ptr noundef %1) #0 {
  %3 = alloca ptr, align 8
  %4 = alloca ptr, align 8
  %5 = alloca ptr, align 8
  %6 = alloca ptr, align 8
  %7 = alloca ptr, align 8
  %8 = alloca i32, align 4
  %9 = alloca ptr, align 8
  %10 = alloca ptr, align 8
  %11 = alloca ptr, align 8
  %12 = alloca ptr, align 8
  store ptr %0, ptr %4, align 8, !tbaa !3
  store ptr %1, ptr %5, align 8, !tbaa !3
  call void @llvm.lifetime.start.p0(i64 8, ptr %6) #6
  %13 = load ptr, ptr @PyDateTimeAPI, align 8, !tbaa !24
  %14 = getelementptr inbounds nuw %struct.PyDateTime_CAPI, ptr %13, i32 0, i32 9
  %15 = load ptr, ptr %14, align 8, !tbaa !36
  %16 = load ptr, ptr @PyDateTimeAPI, align 8, !tbaa !24
  %17 = getelementptr inbounds nuw %struct.PyDateTime_CAPI, ptr %16, i32 0, i32 3
  %18 = load ptr, ptr %17, align 8, !tbaa !28
  %19 = call ptr %15(i32 noundef 0, i32 noundef -18000, i32 noundef 0, i32 noundef 1, ptr noundef %18)
  store ptr %19, ptr %6, align 8, !tbaa !3
  call void @llvm.lifetime.start.p0(i64 8, ptr %7) #6
  %20 = call ptr @PyUnicode_FromString(ptr noundef @.str.39)
  store ptr %20, ptr %7, align 8, !tbaa !3
  %21 = load ptr, ptr %6, align 8, !tbaa !3
  %22 = icmp eq ptr %21, null
  br i1 %22, label %26, label %23

23:                                               ; preds = %2
  %24 = load ptr, ptr %7, align 8, !tbaa !3
  %25 = icmp eq ptr %24, null
  br i1 %25, label %26, label %29

26:                                               ; preds = %23, %2
  %27 = load ptr, ptr %6, align 8, !tbaa !3
  call void @Py_XDECREF(ptr noundef %27)
  %28 = load ptr, ptr %7, align 8, !tbaa !3
  call void @Py_XDECREF(ptr noundef %28)
  store ptr null, ptr %3, align 8
  store i32 1, ptr %8, align 4
  br label %76

29:                                               ; preds = %23
  call void @llvm.lifetime.start.p0(i64 8, ptr %9) #6
  %30 = load ptr, ptr @PyDateTimeAPI, align 8, !tbaa !24
  %31 = getelementptr inbounds nuw %struct.PyDateTime_CAPI, ptr %30, i32 0, i32 10
  %32 = load ptr, ptr %31, align 8, !tbaa !40
  %33 = load ptr, ptr %6, align 8, !tbaa !3
  %34 = load ptr, ptr %7, align 8, !tbaa !3
  %35 = call ptr %32(ptr noundef %33, ptr noundef %34)
  store ptr %35, ptr %9, align 8, !tbaa !3
  call void @llvm.lifetime.start.p0(i64 8, ptr %10) #6
  %36 = load ptr, ptr @PyDateTimeAPI, align 8, !tbaa !24
  %37 = getelementptr inbounds nuw %struct.PyDateTime_CAPI, ptr %36, i32 0, i32 10
  %38 = load ptr, ptr %37, align 8, !tbaa !40
  %39 = load ptr, ptr %6, align 8, !tbaa !3
  %40 = load ptr, ptr %7, align 8, !tbaa !3
  %41 = call ptr %38(ptr noundef %39, ptr noundef %40)
  store ptr %41, ptr %10, align 8, !tbaa !3
  call void @llvm.lifetime.start.p0(i64 8, ptr %11) #6
  %42 = load ptr, ptr @PyDateTimeAPI, align 8, !tbaa !24
  %43 = getelementptr inbounds nuw %struct.PyDateTime_CAPI, ptr %42, i32 0, i32 10
  %44 = load ptr, ptr %43, align 8, !tbaa !40
  %45 = load ptr, ptr %6, align 8, !tbaa !3
  %46 = call ptr %44(ptr noundef %45, ptr noundef null)
  store ptr %46, ptr %11, align 8, !tbaa !3
  %47 = load ptr, ptr %6, align 8, !tbaa !3
  call void @Py_DECREF(ptr noundef %47)
  %48 = load ptr, ptr %7, align 8, !tbaa !3
  call void @Py_DECREF(ptr noundef %48)
  %49 = load ptr, ptr %9, align 8, !tbaa !3
  %50 = icmp eq ptr %49, null
  br i1 %50, label %57, label %51

51:                                               ; preds = %29
  %52 = load ptr, ptr %10, align 8, !tbaa !3
  %53 = icmp eq ptr %52, null
  br i1 %53, label %57, label %54

54:                                               ; preds = %51
  %55 = load ptr, ptr %11, align 8, !tbaa !3
  %56 = icmp eq ptr %55, null
  br i1 %56, label %57, label %58

57:                                               ; preds = %54, %51, %29
  br label %71

58:                                               ; preds = %54
  %59 = call ptr @PyTuple_New(i64 noundef 3)
  store ptr %59, ptr %12, align 8, !tbaa !3
  %60 = load ptr, ptr %12, align 8, !tbaa !3
  %61 = icmp eq ptr %60, null
  br i1 %61, label %62, label %63

62:                                               ; preds = %58
  br label %71

63:                                               ; preds = %58
  %64 = load ptr, ptr %12, align 8, !tbaa !3
  %65 = load ptr, ptr %9, align 8, !tbaa !3
  call void @PyTuple_SET_ITEM(ptr noundef %64, i64 noundef 0, ptr noundef %65)
  %66 = load ptr, ptr %12, align 8, !tbaa !3
  %67 = load ptr, ptr %10, align 8, !tbaa !3
  call void @PyTuple_SET_ITEM(ptr noundef %66, i64 noundef 1, ptr noundef %67)
  %68 = load ptr, ptr %12, align 8, !tbaa !3
  %69 = load ptr, ptr %11, align 8, !tbaa !3
  call void @PyTuple_SET_ITEM(ptr noundef %68, i64 noundef 2, ptr noundef %69)
  %70 = load ptr, ptr %12, align 8, !tbaa !3
  store ptr %70, ptr %3, align 8
  store i32 1, ptr %8, align 4
  br label %75

71:                                               ; preds = %62, %57
  %72 = load ptr, ptr %9, align 8, !tbaa !3
  call void @Py_XDECREF(ptr noundef %72)
  %73 = load ptr, ptr %10, align 8, !tbaa !3
  call void @Py_XDECREF(ptr noundef %73)
  %74 = load ptr, ptr %11, align 8, !tbaa !3
  call void @Py_XDECREF(ptr noundef %74)
  store ptr null, ptr %3, align 8
  store i32 1, ptr %8, align 4
  br label %75

75:                                               ; preds = %71, %63
  call void @llvm.lifetime.end.p0(i64 8, ptr %11) #6
  call void @llvm.lifetime.end.p0(i64 8, ptr %10) #6
  call void @llvm.lifetime.end.p0(i64 8, ptr %9) #6
  br label %76

76:                                               ; preds = %75, %26
  call void @llvm.lifetime.end.p0(i64 8, ptr %7) #6
  call void @llvm.lifetime.end.p0(i64 8, ptr %6) #6
  %77 = load ptr, ptr %3, align 8
  ret ptr %77
}